target datalayout = "e-m:e-p270:32:32-p271:32:32-p272:64:64-i64:64-i128:128-f80:128-n8:16:32:64-S128"
target triple = "x86_64-pc-linux-gnu"

%struct.point_t = type { float, float }
%struct.box_t = type { %struct.point_t, float, float, i32, [12 x i8], [4 x float], [4 x float] }

; Function Attrs: nounwind uwtable
define dso_local void @draw_box(ptr noundef %0, ptr noundef byval(%struct.box_t) align 16 %1, ptr noundef %2) #3 {
  %4 = alloca ptr, align 8
  %5 = alloca ptr, align 8
  %6 = alloca [4 x %struct.point_t], align 16
  %7 = alloca i32, align 4
  %8 = alloca %struct.point_t, align 4
  %9 = alloca i32, align 4
  %10 = alloca %struct.point_t, align 4
  store ptr %0, ptr %4, align 8, !tbaa !7
  store ptr %2, ptr %5, align 8, !tbaa !20
  call void @llvm.lifetime.start.p0(i64 32, ptr %6) #11
  %11 = getelementptr inbounds [4 x %struct.point_t], ptr %6, i64 0, i64 0
  %12 = getelementptr inbounds [4 x %struct.point_t], ptr %6, i64 0, i64 1
  %13 = getelementptr inbounds [4 x %struct.point_t], ptr %6, i64 0, i64 2
  %14 = getelementptr inbounds [4 x %struct.point_t], ptr %6, i64 0, i64 3
  %15 = getelementptr inbounds nuw %struct.box_t, ptr %1, i32 0, i32 0
  call void @llvm.memcpy.p0.p0.i64(ptr align 8 %14, ptr align 16 %15, i64 8, i1 false), !tbaa.struct !22
  call void @llvm.memcpy.p0.p0.i64(ptr align 16 %13, ptr align 8 %14, i64 8, i1 false), !tbaa.struct !22
  call void @llvm.memcpy.p0.p0.i64(ptr align 8 %12, ptr align 16 %13, i64 8, i1 false), !tbaa.struct !22
  call void @llvm.memcpy.p0.p0.i64(ptr align 16 %11, ptr align 8 %12, i64 8, i1 false), !tbaa.struct !22
  %16 = getelementptr inbounds nuw %struct.box_t, ptr %1, i32 0, i32 1
  %17 = load float, ptr %16, align 8, !tbaa !24
  %18 = getelementptr inbounds [4 x %struct.point_t], ptr %6, i64 0, i64 1
  %19 = getelementptr inbounds nuw %struct.point_t, ptr %18, i32 0, i32 0
  %20 = load float, ptr %19, align 8, !tbaa !16
  %21 = fadd reassoc nsz arcp contract afn float %20, %17
  store float %21, ptr %19, align 8, !tbaa !16
  %22 = getelementptr inbounds nuw %struct.box_t, ptr %1, i32 0, i32 1
  %23 = load float, ptr %22, align 8, !tbaa !24
  %24 = getelementptr inbounds [4 x %struct.point_t], ptr %6, i64 0, i64 2
  %25 = getelementptr inbounds nuw %struct.point_t, ptr %24, i32 0, i32 0
  %26 = load float, ptr %25, align 16, !tbaa !16
  %27 = fadd reassoc nsz arcp contract afn float %26, %23
  store float %27, ptr %25, align 16, !tbaa !16
  %28 = getelementptr inbounds nuw %struct.box_t, ptr %1, i32 0, i32 2
  %29 = load float, ptr %28, align 4, !tbaa !26
  %30 = getelementptr inbounds [4 x %struct.point_t], ptr %6, i64 0, i64 2
  %31 = getelementptr inbounds nuw %struct.point_t, ptr %30, i32 0, i32 1
  %32 = load float, ptr %31, align 4, !tbaa !19
  %33 = fadd reassoc nsz arcp contract afn float %32, %29
  store float %33, ptr %31, align 4, !tbaa !19
  %34 = getelementptr inbounds nuw %struct.box_t, ptr %1, i32 0, i32 2
  %35 = load float, ptr %34, align 4, !tbaa !26
  %36 = getelementptr inbounds [4 x %struct.point_t], ptr %6, i64 0, i64 3
  %37 = getelementptr inbounds nuw %struct.point_t, ptr %36, i32 0, i32 1
  %38 = load float, ptr %37, align 4, !tbaa !19
  %39 = fadd reassoc nsz arcp contract afn float %38, %35
  store float %39, ptr %37, align 4, !tbaa !19
  call void @llvm.lifetime.start.p0(i64 4, ptr %7) #11
  store i32 0, ptr %7, align 4, !tbaa !14
  br label %40

40:                                               ; preds = %54, %3
  %41 = load i32, ptr %7, align 4, !tbaa !14
  %42 = icmp slt i32 %41, 4
  br i1 %42, label %44, label %43

43:                                               ; preds = %40
  call void @llvm.lifetime.end.p0(i64 4, ptr %7) #11
  br label %57

44:                                               ; preds = %40
  %45 = load i32, ptr %7, align 4, !tbaa !14
  %46 = sext i32 %45 to i64
  %47 = getelementptr inbounds [4 x %struct.point_t], ptr %6, i64 0, i64 %46
  call void @llvm.lifetime.start.p0(i64 8, ptr %8) #11
  %48 = load i32, ptr %7, align 4, !tbaa !14
  %49 = sext i32 %48 to i64
  %50 = getelementptr inbounds [4 x %struct.point_t], ptr %6, i64 0, i64 %49
  %51 = load ptr, ptr %5, align 8, !tbaa !20
  %52 = load <2 x float>, ptr %50, align 8
  %53 = call reassoc nsz arcp contract afn <2 x float> @apply_homography(<2 x float> %52, ptr noundef %51)
  store <2 x float> %53, ptr %8, align 4
  call void @llvm.memcpy.p0.p0.i64(ptr align 8 %47, ptr align 4 %8, i64 8, i1 false), !tbaa.struct !22
  call void @llvm.lifetime.end.p0(i64 8, ptr %8) #11
  br label %54

54:                                               ; preds = %44
  %55 = load i32, ptr %7, align 4, !tbaa !14
  %56 = add nsw i32 %55, 1
  store i32 %56, ptr %7, align 4, !tbaa !14
  br label %40

57:                                               ; preds = %43
  %58 = load ptr, ptr %4, align 8, !tbaa !7
  %59 = getelementptr inbounds [4 x %struct.point_t], ptr %6, i64 0, i64 0
  %60 = getelementptr inbounds nuw %struct.point_t, ptr %59, i32 0, i32 0
  %61 = load float, ptr %60, align 16, !tbaa !16
  %62 = fpext reassoc nsz arcp contract afn float %61 to double
  %63 = getelementptr inbounds [4 x %struct.point_t], ptr %6, i64 0, i64 0
  %64 = getelementptr inbounds nuw %struct.point_t, ptr %63, i32 0, i32 1
  %65 = load float, ptr %64, align 4, !tbaa !19
  %66 = fpext reassoc nsz arcp contract afn float %65 to double
  call void @cairo_move_to(ptr noundef %58, double noundef %62, double noundef %66)
  call void @llvm.lifetime.start.p0(i64 4, ptr %9) #11
  store i32 1, ptr %9, align 4, !tbaa !14
  br label %67

67:                                               ; preds = %82, %57
  %68 = load i32, ptr %9, align 4, !tbaa !14
  %69 = icmp slt i32 %68, 4
  br i1 %69, label %71, label %70

70:                                               ; preds = %67
  call void @llvm.lifetime.end.p0(i64 4, ptr %9) #11
  br label %85

71:                                               ; preds = %67
  call void @llvm.lifetime.start.p0(i64 8, ptr %10) #11
  %72 = load i32, ptr %9, align 4, !tbaa !14
  %73 = sext i32 %72 to i64
  %74 = getelementptr inbounds [4 x %struct.point_t], ptr %6, i64 0, i64 %73
  call void @llvm.memcpy.p0.p0.i64(ptr align 4 %10, ptr align 8 %74, i64 8, i1 false), !tbaa.struct !22
  %75 = load ptr, ptr %4, align 8, !tbaa !7
  %76 = getelementptr inbounds nuw %struct.point_t, ptr %10, i32 0, i32 0
  %77 = load float, ptr %76, align 4, !tbaa !16
  %78 = fpext reassoc nsz arcp contract afn float %77 to double
  %79 = getelementptr inbounds nuw %struct.point_t, ptr %10, i32 0, i32 1
  %80 = load float, ptr %79, align 4, !tbaa !19
  %81 = fpext reassoc nsz arcp contract afn float %80 to double
  call void @cairo_line_to(ptr noundef %75, double noundef %78, double noundef %81)
  call void @llvm.lifetime.end.p0(i64 8, ptr %10) #11
  br label %82

82:                                               ; preds = %71
  %83 = load i32, ptr %9, align 4, !tbaa !14
  %84 = add nsw i32 %83, 1
  store i32 %84, ptr %9, align 4, !tbaa !14
  br label %67

85:                                               ; preds = %70
  %86 = load ptr, ptr %4, align 8, !tbaa !7
  call void @cairo_close_path(ptr noundef %86)
  call void @llvm.lifetime.end.p0(i64 32, ptr %6) #11
  ret void
}