; Function Attrs: nounwind uwtable
define dso_local void @draw_box(ptr noundef %0, ptr noundef readonly byval(%struct.box_t) align 16 captures(none) %1, ptr noundef %2) local_unnamed_addr #3 {
  %4 = alloca [4 x %struct.point_t], align 16
  call void @llvm.lifetime.start.p0(i64 32, ptr nonnull %4) #8
  %5 = getelementptr inbounds nuw i8, ptr %4, i64 8
  %6 = getelementptr inbounds nuw i8, ptr %4, i64 16
  %7 = getelementptr inbounds nuw i8, ptr %4, i64 24
  %8 = load i64, ptr %1, align 16
  store i64 %8, ptr %7, align 8
  store i64 %8, ptr %5, align 8
  store i64 %8, ptr %4, align 16
  %9 = getelementptr inbounds nuw i8, ptr %1, i64 8
  %10 = load float, ptr %9, align 8, !tbaa !7
  %11 = trunc i64 %8 to i32
  %12 = bitcast i32 %11 to float
  %13 = fadd reassoc nsz arcp contract afn float %10, %12
  store float %13, ptr %5, align 8, !tbaa !14
  store float %13, ptr %6, align 16, !tbaa !14
  %14 = getelementptr inbounds nuw i8, ptr %1, i64 12
  %15 = load float, ptr %14, align 4, !tbaa !15
  %16 = getelementptr inbounds nuw i8, ptr %4, i64 20
  %17 = lshr i64 %8, 32
  %18 = trunc nuw i64 %17 to i32
  %19 = bitcast i32 %18 to float
  %20 = fadd reassoc nsz arcp contract afn float %15, %19
  store float %20, ptr %16, align 4, !tbaa !16
  %21 = getelementptr inbounds nuw i8, ptr %4, i64 28
  store float %20, ptr %21, align 4, !tbaa !16
  br label %28

22:                                               ; preds = %28
  %23 = load float, ptr %4, align 16, !tbaa !14
  %24 = fpext reassoc nsz arcp contract afn float %23 to double
  %25 = getelementptr inbounds nuw i8, ptr %4, i64 4
  %26 = load float, ptr %25, align 4, !tbaa !16
  %27 = fpext reassoc nsz arcp contract afn float %26 to double
  tail call void @cairo_move_to(ptr noundef %0, double noundef %24, double noundef %27) #8
  br label %33

28:                                               ; preds = %3, %28
  %indvars.iv = phi i64 [ 0, %3 ], [ %indvars.iv.next, %28 ]
  %29 = getelementptr inbounds nuw [4 x %struct.point_t], ptr %4, i64 0, i64 %indvars.iv
  %30 = load <2 x float>, ptr %29, align 8
  %31 = tail call reassoc nsz arcp contract afn <2 x float> @apply_homography(<2 x float> %30, ptr noundef %2) #8
  store <2 x float> %31, ptr %29, align 8
  %indvars.iv.next = add nuw nsw i64 %indvars.iv, 1
  %exitcond.not = icmp eq i64 %indvars.iv.next, 4
  br i1 %exitcond.not, label %22, label %28

32:                                               ; preds = %33
  tail call void @cairo_close_path(ptr noundef %0) #8
  call void @llvm.lifetime.end.p0(i64 32, ptr nonnull %4) #8
  ret void

33:                                               ; preds = %22, %33
  %indvars.iv15 = phi i64 [ 1, %22 ], [ %indvars.iv.next16, %33 ]
  %34 = getelementptr inbounds nuw [4 x %struct.point_t], ptr %4, i64 0, i64 %indvars.iv15
  %.sroa.0.0.copyload = load float, ptr %34, align 8, !tbaa !17
  %.sroa.4.0..sroa_idx = getelementptr inbounds nuw i8, ptr %34, i64 4
  %.sroa.4.0.copyload = load float, ptr %.sroa.4.0..sroa_idx, align 4, !tbaa !17
  %35 = fpext reassoc nsz arcp contract afn float %.sroa.0.0.copyload to double
  %36 = fpext reassoc nsz arcp contract afn float %.sroa.4.0.copyload to double
  tail call void @cairo_line_to(ptr noundef %0, double noundef %35, double noundef %36) #8
  %indvars.iv.next16 = add nuw nsw i64 %indvars.iv15, 1
  %exitcond18.not = icmp eq i64 %indvars.iv.next16, 4
  br i1 %exitcond18.not, label %32, label %33
}